#include <math.h>
#include <stdio.h>
#include <stdlib.h>
#include <string.h>

int main()
{
	char a[1000];
	int i,j,k;
	gets(a);
	k=strlen(a);
	for(i=0;a[i]==' ';i++);
	for(;i<k;)
	{
		if(a[i]!=' ')
		{
			for(j=i+1;a[j]!=' '&&j<k;j++);
			printf("%d",j-i);
			i=j;
		}
		else
		{
			for(j=i+1;a[j]==' '&&j<k;j++);
			printf(",");
			i=j;
		}
	}
	printf("\n");
	return 0;
}