; ModuleID = 'source-C-CXX/27/1951.c'
source_filename = "source-C-CXX/27/1951.c"
target datalayout = "e-m:e-p270:32:32-p271:32:32-p272:64:64-i64:64-f80:128-n8:16:32:64-S128"
target triple = "x86_64-pc-linux-gnu"

@.str = private unnamed_addr constant [3 x i8] c"%d\00", align 1

; Function Attrs: nounwind sspstrong uwtable
define dso_local i32 @main() local_unnamed_addr #0 {
  %1 = alloca [1000 x i8], align 16
  %2 = getelementptr inbounds [1000 x i8], [1000 x i8]* %1, i64 0, i64 0
  call void @llvm.lifetime.start.p0i8(i64 1000, i8* nonnull %2) #6
  %3 = call i32 (i8*, ...) bitcast (i32 (...)* @gets to i32 (i8*, ...)*)(i8* nonnull %2) #6
  %4 = call i64 @strlen(i8* noundef nonnull %2) #7
  br label %5

5:                                                ; preds = %5, %0
  %6 = phi i64 [ %10, %5 ], [ 0, %0 ]
  %7 = getelementptr inbounds [1000 x i8], [1000 x i8]* %1, i64 0, i64 %6
  %8 = load i8, i8* %7, align 1, !tbaa !5
  %9 = icmp eq i8 %8, 32
  %10 = add nuw i64 %6, 1
  br i1 %9, label %5, label %11, !llvm.loop !8

11:                                               ; preds = %5
  %12 = trunc i64 %4 to i32
  %13 = trunc i64 %6 to i32
  %14 = icmp slt i32 %13, %12
  br i1 %14, label %15, label %50

15:                                               ; preds = %11
  %16 = shl i64 %4, 32
  %17 = ashr exact i64 %16, 32
  br label %18

18:                                               ; preds = %15, %47
  %19 = phi i32 [ %48, %47 ], [ %13, %15 ]
  %20 = sext i32 %19 to i64
  %21 = getelementptr inbounds [1000 x i8], [1000 x i8]* %1, i64 0, i64 %20
  %22 = load i8, i8* %21, align 1, !tbaa !5
  %23 = icmp eq i8 %22, 32
  br i1 %23, label %36, label %24

24:                                               ; preds = %18, %24
  %25 = phi i64 [ %26, %24 ], [ %20, %18 ]
  %26 = add nsw i64 %25, 1
  %27 = getelementptr inbounds [1000 x i8], [1000 x i8]* %1, i64 0, i64 %26
  %28 = load i8, i8* %27, align 1, !tbaa !5
  %29 = icmp ne i8 %28, 32
  %30 = icmp slt i64 %26, %17
  %31 = select i1 %29, i1 %30, i1 false
  br i1 %31, label %24, label %32, !llvm.loop !10

32:                                               ; preds = %24
  %33 = trunc i64 %26 to i32
  %34 = sub nsw i32 %33, %19
  %35 = call i32 (i8*, ...) @printf(i8* nonnull dereferenceable(1) getelementptr inbounds ([3 x i8], [3 x i8]* @.str, i64 0, i64 0), i32 %34)
  br label %47

36:                                               ; preds = %18, %36
  %37 = phi i64 [ %38, %36 ], [ %20, %18 ]
  %38 = add nsw i64 %37, 1
  %39 = getelementptr inbounds [1000 x i8], [1000 x i8]* %1, i64 0, i64 %38
  %40 = load i8, i8* %39, align 1, !tbaa !5
  %41 = icmp eq i8 %40, 32
  %42 = icmp slt i64 %38, %17
  %43 = select i1 %41, i1 %42, i1 false
  br i1 %43, label %36, label %44, !llvm.loop !11

44:                                               ; preds = %36
  %45 = trunc i64 %38 to i32
  %46 = call i32 @putchar(i32 44)
  br label %47

47:                                               ; preds = %44, %32
  %48 = phi i32 [ %33, %32 ], [ %45, %44 ]
  %49 = icmp slt i32 %48, %12
  br i1 %49, label %18, label %50, !llvm.loop !12

50:                                               ; preds = %47, %11
  %51 = call i32 @putchar(i32 10)
  call void @llvm.lifetime.end.p0i8(i64 1000, i8* nonnull %2) #6
  ret i32 0
}

; Function Attrs: argmemonly mustprogress nofree nosync nounwind willreturn
declare void @llvm.lifetime.start.p0i8(i64 immarg, i8* nocapture) #1

declare i32 @gets(...) local_unnamed_addr #2

; Function Attrs: argmemonly mustprogress nofree nounwind readonly willreturn
declare i64 @strlen(i8* nocapture) local_unnamed_addr #3

; Function Attrs: nofree nounwind
declare noundef i32 @printf(i8* nocapture noundef readonly, ...) local_unnamed_addr #4

; Function Attrs: argmemonly mustprogress nofree nosync nounwind willreturn
declare void @llvm.lifetime.end.p0i8(i64 immarg, i8* nocapture) #1

; Function Attrs: nofree nounwind
declare noundef i32 @putchar(i32 noundef) local_unnamed_addr #5


!llvm.module.flags = !{!0, !1, !2, !3}
!llvm.ident = !{!4}

!0 = !{i32 1, !"wchar_size", i32 4}
!1 = !{i32 7, !"PIC Level", i32 2}
!2 = !{i32 7, !"PIE Level", i32 2}
!3 = !{i32 7, !"uwtable", i32 1}
!4 = !{!"clang version 13.0.0"}
!5 = !{!6, !6, i64 0}
!6 = !{!"omnipotent char", !7, i64 0}
!7 = !{!"Simple C/C++ TBAA"}
!8 = distinct !{!8, !9}
!9 = !{!"llvm.loop.mustprogress"}
!10 = distinct !{!10, !9}
!11 = distinct !{!11, !9}
!12 = distinct !{!12, !9}
